target datalayout = "e-m:e-p270:32:32-p271:32:32-p272:64:64-i64:64-i128:128-f80:128-n8:16:32:64-S128"
target triple = "x86_64-pc-linux-gnu"

%struct.nghttp2_stream = type { i32, %struct.nghttp2_pq_entry, i64, i64, i64, i64, ptr, ptr, ptr, i64, i32, i32, i32, i32, i32, i32, i32, i16, i32, i8, i8, i8, i8, i8, i8 }
%struct.nghttp2_pq_entry = type { i64 }
%struct.nghttp2_session = type { %struct.nghttp2_map, %struct.nghttp2_outbound_queue, %struct.nghttp2_outbound_queue, %struct.nghttp2_outbound_queue, [8 x %struct.anon], %struct.nghttp2_active_outbound_item, %struct.nghttp2_inbound_frame, %struct.nghttp2_hd_deflater, %struct.nghttp2_hd_inflater, %struct.nghttp2_session_callbacks, %struct.nghttp2_mem, ptr, ptr, %struct.nghttp2_ratelim, i64, i64, i64, i64, i64, i64, i64, i64, i64, i64, i64, i64, i64, i64, i32, i32, i32, i32, i32, i32, i32, i32, i32, i32, i32, i32, i8, %struct.nghttp2_settings_storage, %struct.nghttp2_settings_storage, i32, i32, i32, i8, i8, i8, i8, i8, i8, [32 x i8] }
%struct.nghttp2_map = type { ptr, ptr, i64, i64 }
%struct.nghttp2_outbound_queue = type { ptr, ptr, i64 }
%struct.anon = type { %struct.nghttp2_pq }
%struct.nghttp2_pq = type { ptr, ptr, i64, i64, ptr }
%struct.nghttp2_active_outbound_item = type { ptr, %struct.nghttp2_bufs, i32 }
%struct.nghttp2_bufs = type { ptr, ptr, ptr, i64, i64, i64, i64, i64 }
%struct.nghttp2_inbound_frame = type { %union.nghttp2_frame, %union.nghttp2_ext_frame_payload, ptr, %struct.nghttp2_buf, %struct.nghttp2_buf, ptr, i64, i64, i64, i64, i32, [32 x i8] }
%union.nghttp2_frame = type { %struct.nghttp2_headers }
%struct.nghttp2_headers = type { %struct.nghttp2_frame_hd, i64, %struct.nghttp2_priority_spec, ptr, i64, i32 }
%struct.nghttp2_frame_hd = type { i64, i32, i8, i8, i8 }
%struct.nghttp2_priority_spec = type { i32, i32, i8 }
%union.nghttp2_ext_frame_payload = type { %struct.nghttp2_ext_altsvc }
%struct.nghttp2_ext_altsvc = type { ptr, i64, ptr, i64 }
%struct.nghttp2_buf = type { ptr, ptr, ptr, ptr, ptr }
%struct.nghttp2_hd_deflater = type { %struct.nghttp2_hd_context, %struct.nghttp2_hd_map, i64, i64, i8 }
%struct.nghttp2_hd_context = type { %struct.nghttp2_hd_ringbuf, ptr, i64, i64, i32, i8 }
%struct.nghttp2_hd_ringbuf = type { ptr, i64, i64, i64 }
%struct.nghttp2_hd_map = type { [128 x ptr] }
%struct.nghttp2_hd_inflater = type { %struct.nghttp2_hd_context, %struct.nghttp2_hd_huff_decode_context, %struct.nghttp2_buf, %struct.nghttp2_buf, ptr, ptr, ptr, ptr, i64, i64, i64, i64, i64, i32, i32, i8, i8, i8 }
%struct.nghttp2_hd_huff_decode_context = type { i16 }
%struct.nghttp2_session_callbacks = type { ptr, ptr, ptr, ptr, ptr, ptr, ptr, ptr, ptr, ptr, ptr, ptr, ptr, ptr, ptr, ptr, ptr, ptr, ptr, ptr, ptr, ptr, ptr, ptr, ptr, ptr, ptr, ptr }
%struct.nghttp2_mem = type { ptr, ptr, ptr, ptr, ptr }
%struct.nghttp2_ratelim = type { i64, i64, i64, i64 }
%struct.nghttp2_settings_storage = type { i32, i32, i32, i32, i32, i32, i32, i32 }

; Function Attrs: nounwind uwtable
define hidden ptr @nghttp2_session_get_stream(ptr noundef %0, i32 noundef %1) #0 {
  %3 = alloca ptr, align 8
  %4 = alloca ptr, align 8
  %5 = alloca i32, align 4
  %6 = alloca ptr, align 8
  %7 = alloca i32, align 4
  store ptr %0, ptr %4, align 8, !tbaa !7
  store i32 %1, ptr %5, align 4, !tbaa !3
  call void @llvm.lifetime.start.p0(i64 8, ptr %6) #10
  %8 = load ptr, ptr %4, align 8, !tbaa !7
  %9 = getelementptr inbounds nuw %struct.nghttp2_session, ptr %8, i32 0, i32 0
  %10 = load i32, ptr %5, align 4, !tbaa !3
  %11 = call ptr @nghttp2_map_find(ptr noundef %9, i32 noundef %10)
  store ptr %11, ptr %6, align 8, !tbaa !43
  %12 = load ptr, ptr %6, align 8, !tbaa !43
  %13 = icmp eq ptr %12, null
  br i1 %13, label %26, label %14

14:                                               ; preds = %2
  %15 = load ptr, ptr %6, align 8, !tbaa !43
  %16 = getelementptr inbounds nuw %struct.nghttp2_stream, ptr %15, i32 0, i32 19
  %17 = load i8, ptr %16, align 4, !tbaa !45
  %18 = zext i8 %17 to i32
  %19 = and i32 %18, 2
  %20 = icmp ne i32 %19, 0
  br i1 %20, label %26, label %21

21:                                               ; preds = %14
  %22 = load ptr, ptr %6, align 8, !tbaa !43
  %23 = getelementptr inbounds nuw %struct.nghttp2_stream, ptr %22, i32 0, i32 0
  %24 = load i32, ptr %23, align 8, !tbaa !48
  %25 = icmp eq i32 %24, 5
  br i1 %25, label %26, label %27

26:                                               ; preds = %21, %14, %2
  store ptr null, ptr %3, align 8
  store i32 1, ptr %7, align 4
  br label %29

27:                                               ; preds = %21
  %28 = load ptr, ptr %6, align 8, !tbaa !43
  store ptr %28, ptr %3, align 8
  store i32 1, ptr %7, align 4
  br label %29

29:                                               ; preds = %27, %26
  call void @llvm.lifetime.end.p0(i64 8, ptr %6) #10
  %30 = load ptr, ptr %3, align 8
  ret ptr %30
}

; Function Attrs: nounwind uwtable
define i32 @nghttp2_session_get_stream_effective_recv_data_length(ptr noundef %0, i32 noundef %1) #0 {
  %3 = alloca i32, align 4
  %4 = alloca ptr, align 8
  %5 = alloca i32, align 4
  %6 = alloca ptr, align 8
  %7 = alloca i32, align 4
  store ptr %0, ptr %4, align 8, !tbaa !7
  store i32 %1, ptr %5, align 4, !tbaa !3
  call void @llvm.lifetime.start.p0(i64 8, ptr %6) #10
  %8 = load ptr, ptr %4, align 8, !tbaa !7
  %9 = load i32, ptr %5, align 4, !tbaa !3
  %10 = call ptr @nghttp2_session_get_stream(ptr noundef %8, i32 noundef %9)
  store ptr %10, ptr %6, align 8, !tbaa !43
  %11 = load ptr, ptr %6, align 8, !tbaa !43
  %12 = icmp eq ptr %11, null
  br i1 %12, label %13, label %14

13:                                               ; preds = %2
  store i32 -1, ptr %3, align 4
  store i32 1, ptr %7, align 4
  br label %26

14:                                               ; preds = %2
  %15 = load ptr, ptr %6, align 8, !tbaa !43
  %16 = getelementptr inbounds nuw %struct.nghttp2_stream, ptr %15, i32 0, i32 12
  %17 = load i32, ptr %16, align 8, !tbaa !221
  %18 = icmp slt i32 %17, 0
  br i1 %18, label %19, label %20

19:                                               ; preds = %14
  br label %24

20:                                               ; preds = %14
  %21 = load ptr, ptr %6, align 8, !tbaa !43
  %22 = getelementptr inbounds nuw %struct.nghttp2_stream, ptr %21, i32 0, i32 12
  %23 = load i32, ptr %22, align 8, !tbaa !221
  br label %24

24:                                               ; preds = %20, %19
  %25 = phi i32 [ 0, %19 ], [ %23, %20 ]
  store i32 %25, ptr %3, align 4
  store i32 1, ptr %7, align 4
  br label %26

26:                                               ; preds = %24, %13
  call void @llvm.lifetime.end.p0(i64 8, ptr %6) #10
  %27 = load i32, ptr %3, align 4
  ret i32 %27
}