; Function Attrs: nounwind uwtable
define range(i32 -1, -2147483648) i32 @nghttp2_session_get_stream_effective_recv_data_length(ptr noundef %0, i32 noundef %1) local_unnamed_addr #1 {
  %3 = tail call ptr @nghttp2_map_find(ptr noundef %0, i32 noundef %1) #16
  %4 = icmp eq ptr %3, null
  br i1 %4, label %nghttp2_session_get_stream.exit.thread, label %5

5:                                                ; preds = %2
  %6 = getelementptr inbounds nuw i8, ptr %3, i64 116
  %7 = load i8, ptr %6, align 4, !tbaa !38
  %8 = and i8 %7, 2
  %.not.i = icmp eq i8 %8, 0
  br i1 %.not.i, label %9, label %nghttp2_session_get_stream.exit.thread

9:                                                ; preds = %5
  %10 = load i32, ptr %3, align 8, !tbaa !42
  %11 = icmp eq i32 %10, 5
  br i1 %11, label %nghttp2_session_get_stream.exit.thread, label %nghttp2_session_get_stream.exit

nghttp2_session_get_stream.exit:                  ; preds = %9
  %12 = getelementptr inbounds nuw i8, ptr %3, i64 88
  %13 = load i32, ptr %12, align 8, !tbaa !223
  %spec.select = tail call i32 @llvm.smax.i32(i32 %13, i32 0)
  br label %nghttp2_session_get_stream.exit.thread

nghttp2_session_get_stream.exit.thread:           ; preds = %9, %2, %5, %nghttp2_session_get_stream.exit
  %.0 = phi i32 [ %spec.select, %nghttp2_session_get_stream.exit ], [ -1, %5 ], [ -1, %2 ], [ -1, %9 ]
  ret i32 %.0
}